; Function Attrs: mustprogress uwtable
define void @_ZN4LIEF2PE12ResourceDataC2ESt6vectorIhSaIhEEj(ptr noundef nonnull align 8 dereferenceable(116) %0, ptr nocapture noundef %1, i32 noundef %2) unnamed_addr #3 align 2 {
  tail call void @_ZN4LIEF2PE12ResourceNodeC2Ev(ptr noundef nonnull align 8 dereferenceable(76) %0)
  store ptr getelementptr inbounds ({ [8 x ptr] }, ptr @_ZTVN4LIEF2PE12ResourceDataE, i64 0, i32 0, i64 2), ptr %0, align 8
  %4 = getelementptr inbounds i8, ptr %0, i64 80
  %5 = load ptr, ptr %1, align 8
  store ptr %5, ptr %4, align 8
  %6 = getelementptr inbounds i8, ptr %0, i64 88
  %7 = getelementptr inbounds i8, ptr %1, i64 8
  %8 = load ptr, ptr %7, align 8
  store ptr %8, ptr %6, align 8
  %9 = getelementptr inbounds i8, ptr %0, i64 96
  %10 = getelementptr inbounds i8, ptr %1, i64 16
  %11 = load ptr, ptr %10, align 8
  store ptr %11, ptr %9, align 8
  tail call void @llvm.memset.p0.i64(ptr noundef nonnull align 8 dereferenceable(24) %1, i8 0, i64 24, i1 false)
  %12 = getelementptr inbounds i8, ptr %0, i64 104
  store i32 %2, ptr %12, align 8
  %13 = getelementptr inbounds i8, ptr %0, i64 108
  store i32 0, ptr %13, align 4
  %14 = getelementptr inbounds i8, ptr %0, i64 112
  store i32 0, ptr %14, align 8
  %15 = getelementptr inbounds i8, ptr %0, i64 8
  store i32 1, ptr %15, align 8
  ret void
}